; Function Attrs: mustprogress uwtable
define hidden void @_ZN4cvc58internal6theory2fp12constantFold10isInfiniteENS0_12NodeTemplateILb0EEEb(ptr noalias nocapture writeonly sret(%"struct.cvc5::internal::theory::RewriteResponse") align 8 %agg.result, ptr nocapture noundef readonly %node, i1 zeroext %isPreRewrite) #5 personality ptr @__gxx_personality_v0 {
entry:
  %agg.tmp = alloca %"class.cvc5::internal::NodeTemplate", align 8
  %ref.tmp = alloca i8, align 1
  %call = tail call noundef ptr @_ZN4cvc58internal11NodeManager9currentNMEv()
  %0 = load ptr, ptr %node, align 8, !noalias !452
  %d_kind.i.i.i.i = getelementptr inbounds i8, ptr %0, i64 8
  %bf.load.i.i.i.i = load i16, ptr %d_kind.i.i.i.i, align 8, !noalias !452
  %bf.clear.i.i.i.i = and i16 %bf.load.i.i.i.i, 1023
  %bf.cast.i.i.i.i = zext nneg i16 %bf.clear.i.i.i.i to i32
  %cmp.i.i.i.i.i = icmp eq i16 %bf.clear.i.i.i.i, 1023
  %cond.i.i.i.i.i = select i1 %cmp.i.i.i.i.i, i32 -1, i32 %bf.cast.i.i.i.i
  %call2.i.i.i = tail call noundef i32 @_ZN4cvc58internal4kind10metaKindOfENS1_6Kind_tE(i32 noundef %cond.i.i.i.i.i), !noalias !452
  %cmp.i.i = icmp eq i32 %call2.i.i.i, 2
  %d_children.i.i = getelementptr inbounds i8, ptr %0, i64 16
  %idxprom.i.i = zext i1 %cmp.i.i to i64
  %arrayidx.i.i = getelementptr inbounds [0 x ptr], ptr %d_children.i.i, i64 0, i64 %idxprom.i.i
  %1 = load ptr, ptr %arrayidx.i.i, align 8, !noalias !452
  %call.i2 = tail call noundef nonnull align 8 dereferenceable(8) ptr @_ZNK4cvc58internal4expr9NodeValue8getConstINS0_13FloatingPointEEERKT_v(ptr noundef nonnull align 8 dereferenceable(16) %1)
  %call4 = tail call noundef zeroext i1 @_ZNK4cvc58internal13FloatingPoint10isInfiniteEv(ptr noundef nonnull align 8 dereferenceable(8) %call.i2)
  %frombool5 = zext i1 %call4 to i8
  store i8 %frombool5, ptr %ref.tmp, align 1
  call void @_ZN4cvc58internal11NodeManager7mkConstIbEENS0_12NodeTemplateILb1EEERKT_(ptr nonnull sret(%"class.cvc5::internal::NodeTemplate") align 8 %agg.tmp, ptr noundef nonnull align 8 dereferenceable(3360) %call, ptr noundef nonnull align 1 dereferenceable(1) %ref.tmp)
  store i32 0, ptr %agg.result, align 8
  %d_node.i = getelementptr inbounds i8, ptr %agg.result, i64 8
  %2 = load ptr, ptr %agg.tmp, align 8
  store ptr %2, ptr %d_node.i, align 8
  %bf.load.i.i.i = load i64, ptr %2, align 8
  %bf.lshr.i.i.i = lshr i64 %bf.load.i.i.i, 40
  %3 = trunc i64 %bf.lshr.i.i.i to i32
  %bf.cast.i.i.i = and i32 %3, 1048575
  %cmp.i.i.i = icmp ult i32 %bf.cast.i.i.i, 1048574
  br i1 %cmp.i.i.i, label %if.then.i.i.i, label %if.else.i.i.i

if.then.i.i.i:                                    ; preds = %entry
  %bf.value.i.i.i = add i64 %bf.load.i.i.i, 1099511627776
  %bf.shl.i.i.i = and i64 %bf.value.i.i.i, 1152920405095219200
  %bf.clear7.i.i.i = and i64 %bf.load.i.i.i, -1152920405095219201
  %bf.set.i.i.i = or disjoint i64 %bf.shl.i.i.i, %bf.clear7.i.i.i
  store i64 %bf.set.i.i.i, ptr %2, align 8
  br label %invoke.cont8

if.else.i.i.i:                                    ; preds = %entry
  %cmp12.i.i.i = icmp eq i32 %bf.cast.i.i.i, 1048574
  br i1 %cmp12.i.i.i, label %if.then13.i.i.i, label %invoke.cont8

if.then13.i.i.i:                                  ; preds = %if.else.i.i.i
  %bf.set23.i.i.i = or i64 %bf.load.i.i.i, 1152920405095219200
  store i64 %bf.set23.i.i.i, ptr %2, align 8
  invoke void @_ZN4cvc58internal4expr9NodeValue20markRefCountMaxedOutEv(ptr noundef nonnull align 8 dereferenceable(16) %2)
          to label %invoke.cont8 unwind label %lpad7

invoke.cont8:                                     ; preds = %if.else.i.i.i, %if.then.i.i.i, %if.then13.i.i.i
  %4 = load ptr, ptr %agg.tmp, align 8
  %bf.load.i.i = load i64, ptr %4, align 8
  %5 = and i64 %bf.load.i.i, 1152920405095219200
  %cmp.not.i.i = icmp eq i64 %5, 1152920405095219200
  br i1 %cmp.not.i.i, label %_ZN4cvc58internal12NodeTemplateILb1EED2Ev.exit, label %if.then.i.i

if.then.i.i:                                      ; preds = %invoke.cont8
  %bf.value.i.i = add i64 %bf.load.i.i, 1152920405095219200
  %bf.shl.i.i = and i64 %bf.value.i.i, 1152920405095219200
  %bf.clear7.i.i = and i64 %bf.load.i.i, -1152920405095219201
  %bf.set.i.i = or disjoint i64 %bf.shl.i.i, %bf.clear7.i.i
  store i64 %bf.set.i.i, ptr %4, align 8
  %cmp12.i.i = icmp eq i64 %bf.shl.i.i, 0
  br i1 %cmp12.i.i, label %if.then13.i.i, label %_ZN4cvc58internal12NodeTemplateILb1EED2Ev.exit

if.then13.i.i:                                    ; preds = %if.then.i.i
  invoke void @_ZN4cvc58internal4expr9NodeValue15markForDeletionEv(ptr noundef nonnull align 8 dereferenceable(16) %4)
          to label %_ZN4cvc58internal12NodeTemplateILb1EED2Ev.exit unwind label %terminate.lpad.i

terminate.lpad.i:                                 ; preds = %if.then13.i.i
  %6 = landingpad { ptr, i32 }
          catch ptr null
  %7 = extractvalue { ptr, i32 } %6, 0
  call void @__clang_call_terminate(ptr %7) #15
  unreachable

_ZN4cvc58internal12NodeTemplateILb1EED2Ev.exit:   ; preds = %invoke.cont8, %if.then.i.i, %if.then13.i.i
  ret void

lpad7:                                            ; preds = %if.then13.i.i.i
  %8 = landingpad { ptr, i32 }
          cleanup
  call void @_ZN4cvc58internal12NodeTemplateILb1EED2Ev(ptr noundef nonnull align 8 dereferenceable(8) %agg.tmp) #16
  resume { ptr, i32 } %8
}